target datalayout = "e-m:e-p270:32:32-p271:32:32-p272:64:64-i64:64-i128:128-f80:128-n8:16:32:64-S128"
target triple = "x86_64-pc-linux-gnu"

%struct.Qureg = type { i32, i32, i32, i64, i64, i32, i32, %struct.ComplexArray, %struct.ComplexArray, %struct.ComplexArray, ptr, ptr, ptr, ptr, ptr, ptr }
%struct.ComplexArray = type { ptr, ptr }

; Function Attrs: nounwind uwtable
define void @densmatr_mixTwoQubitDepolarising(ptr noundef byval(%struct.Qureg) align 8 %0, i32 noundef %1, i32 noundef %2, double noundef %3) #0 {
  %5 = alloca i32, align 4
  %6 = alloca i32, align 4
  %7 = alloca double, align 8
  %8 = alloca double, align 8
  %9 = alloca double, align 8
  %10 = alloca double, align 8
  store i32 %1, ptr %5, align 4, !tbaa !4
  store i32 %2, ptr %6, align 4, !tbaa !4
  store double %3, ptr %7, align 8, !tbaa !8
  %11 = load double, ptr %7, align 8, !tbaa !8
  %12 = fcmp oeq double %11, 0.000000e+00
  br i1 %12, label %13, label %14

13:                                               ; preds = %4
  br label %41

14:                                               ; preds = %4
  call void @llvm.lifetime.start.p0(i64 8, ptr %8) #6
  %15 = load double, ptr %7, align 8, !tbaa !8
  %16 = fdiv double 2.000000e+00, %15
  store double %16, ptr %8, align 8, !tbaa !8
  call void @llvm.lifetime.start.p0(i64 8, ptr %9) #6
  %17 = load double, ptr %8, align 8, !tbaa !8
  %18 = fsub double %17, 1.000000e+00
  %19 = load double, ptr %8, align 8, !tbaa !8
  %20 = fsub double %19, 1.000000e+00
  %21 = load double, ptr %8, align 8, !tbaa !8
  %22 = fsub double %21, 1.000000e+00
  %23 = call double @llvm.fmuladd.f64(double %20, double %22, double -1.000000e+00)
  %24 = call double @sqrt(double noundef %23) #6, !tbaa !4
  %25 = fsub double %18, %24
  store double %25, ptr %9, align 8, !tbaa !8
  call void @llvm.lifetime.start.p0(i64 8, ptr %10) #6
  %26 = load double, ptr %9, align 8, !tbaa !8
  %27 = fadd double 1.000000e+00, %26
  store double %27, ptr %10, align 8, !tbaa !8
  %28 = load double, ptr %10, align 8, !tbaa !8
  %29 = load double, ptr %10, align 8, !tbaa !8
  %30 = fmul double %28, %29
  %31 = load double, ptr %10, align 8, !tbaa !8
  %32 = fmul double %30, %31
  %33 = fdiv double 1.000000e+00, %32
  store double %33, ptr %10, align 8, !tbaa !8
  %34 = load i32, ptr %5, align 4, !tbaa !4
  %35 = load i32, ptr %6, align 4, !tbaa !4
  %36 = load double, ptr %7, align 8, !tbaa !8
  call void @densmatr_mixTwoQubitDephasing(ptr noundef byval(%struct.Qureg) align 8 %0, i32 noundef %34, i32 noundef %35, double noundef %36)
  %37 = load i32, ptr %5, align 4, !tbaa !4
  %38 = load i32, ptr %6, align 4, !tbaa !4
  %39 = load double, ptr %9, align 8, !tbaa !8
  %40 = load double, ptr %10, align 8, !tbaa !8
  call void @densmatr_mixTwoQubitDepolarisingLocal(ptr noundef byval(%struct.Qureg) align 8 %0, i32 noundef %37, i32 noundef %38, double noundef %39, double noundef %40)
  call void @llvm.lifetime.end.p0(i64 8, ptr %10) #6
  call void @llvm.lifetime.end.p0(i64 8, ptr %9) #6
  call void @llvm.lifetime.end.p0(i64 8, ptr %8) #6
  br label %41

41:                                               ; preds = %14, %13
  ret void
}