; Function Attrs: nounwind uwtable
define void @densmatr_mixTwoQubitDepolarising(ptr noundef readonly byval(%struct.Qureg) align 8 captures(none) %0, i32 noundef %1, i32 noundef %2, double noundef %3) local_unnamed_addr #0 {
  %5 = fcmp oeq double %3, 0.000000e+00
  br i1 %5, label %16, label %6

6:                                                ; preds = %4
  %7 = fdiv double 2.000000e+00, %3
  %8 = fadd double %7, -1.000000e+00
  %9 = tail call double @llvm.fmuladd.f64(double %8, double %8, double -1.000000e+00)
  %10 = tail call double @sqrt(double noundef %9) #15, !tbaa !4
  %11 = fsub double %8, %10
  %12 = fadd double %11, 1.000000e+00
  %13 = fmul double %12, %12
  %14 = fmul double %12, %13
  %15 = fdiv double 1.000000e+00, %14
  tail call void @densmatr_mixTwoQubitDephasing(ptr noundef nonnull byval(%struct.Qureg) align 8 %0, i32 noundef %1, i32 noundef %2, double noundef %3) #15
  tail call void @densmatr_mixTwoQubitDepolarisingLocal(ptr noundef nonnull byval(%struct.Qureg) align 8 %0, i32 noundef %1, i32 noundef %2, double noundef %11, double noundef %15) #15
  br label %16

16:                                               ; preds = %4, %6
  ret void
}